target datalayout = "e-m:e-p270:32:32-p271:32:32-p272:64:64-i64:64-i128:128-f80:128-n8:16:32:64-S128"
target triple = "x86_64-pc-linux-gnu"

%struct.TParser = type { ptr, i32, ptr, ptr, i8, i32, ptr, i8, i8, i8, ptr, i32, i32, i32 }
%struct.TParserPosition = type { i32, i32, i32, i32, i32, i32, ptr, ptr }

@.str.100 = private unnamed_addr constant [9 x i8] c"</script\00", align 1
@.str.101 = private unnamed_addr constant [8 x i8] c"</style\00", align 1
@.str.102 = private unnamed_addr constant [8 x i8] c"<script\00", align 1
@.str.103 = private unnamed_addr constant [7 x i8] c"<style\00", align 1

; Function Attrs: nounwind uwtable
define internal void @SpecialTags(ptr noundef %0) #0 {
  %2 = alloca ptr, align 8
  store ptr %0, ptr %2, align 8
  %3 = load ptr, ptr %2, align 8
  %4 = getelementptr inbounds nuw %struct.TParser, ptr %3, i32 0, i32 6
  %5 = load ptr, ptr %4, align 8
  %6 = getelementptr inbounds nuw %struct.TParserPosition, ptr %5, i32 0, i32 4
  %7 = load i32, ptr %6, align 8
  switch i32 %7, label %48 [
    i32 8, label %8
    i32 7, label %18
    i32 6, label %38
  ]

8:                                                ; preds = %1
  %9 = load ptr, ptr %2, align 8
  %10 = getelementptr inbounds nuw %struct.TParser, ptr %9, i32 0, i32 10
  %11 = load ptr, ptr %10, align 8
  %12 = call i32 @pg_strncasecmp(ptr noundef %11, ptr noundef @.str.100, i64 noundef 8)
  %13 = icmp eq i32 %12, 0
  br i1 %13, label %14, label %17

14:                                               ; preds = %8
  %15 = load ptr, ptr %2, align 8
  %16 = getelementptr inbounds nuw %struct.TParser, ptr %15, i32 0, i32 7
  store i8 0, ptr %16, align 8
  br label %17

17:                                               ; preds = %14, %8
  br label %49

18:                                               ; preds = %1
  %19 = load ptr, ptr %2, align 8
  %20 = getelementptr inbounds nuw %struct.TParser, ptr %19, i32 0, i32 10
  %21 = load ptr, ptr %20, align 8
  %22 = call i32 @pg_strncasecmp(ptr noundef %21, ptr noundef @.str.101, i64 noundef 7)
  %23 = icmp eq i32 %22, 0
  br i1 %23, label %24, label %27

24:                                               ; preds = %18
  %25 = load ptr, ptr %2, align 8
  %26 = getelementptr inbounds nuw %struct.TParser, ptr %25, i32 0, i32 7
  store i8 0, ptr %26, align 8
  br label %37

27:                                               ; preds = %18
  %28 = load ptr, ptr %2, align 8
  %29 = getelementptr inbounds nuw %struct.TParser, ptr %28, i32 0, i32 10
  %30 = load ptr, ptr %29, align 8
  %31 = call i32 @pg_strncasecmp(ptr noundef %30, ptr noundef @.str.102, i64 noundef 7)
  %32 = icmp eq i32 %31, 0
  br i1 %32, label %33, label %36

33:                                               ; preds = %27
  %34 = load ptr, ptr %2, align 8
  %35 = getelementptr inbounds nuw %struct.TParser, ptr %34, i32 0, i32 7
  store i8 1, ptr %35, align 8
  br label %36

36:                                               ; preds = %33, %27
  br label %37

37:                                               ; preds = %36, %24
  br label %49

38:                                               ; preds = %1
  %39 = load ptr, ptr %2, align 8
  %40 = getelementptr inbounds nuw %struct.TParser, ptr %39, i32 0, i32 10
  %41 = load ptr, ptr %40, align 8
  %42 = call i32 @pg_strncasecmp(ptr noundef %41, ptr noundef @.str.103, i64 noundef 6)
  %43 = icmp eq i32 %42, 0
  br i1 %43, label %44, label %47

44:                                               ; preds = %38
  %45 = load ptr, ptr %2, align 8
  %46 = getelementptr inbounds nuw %struct.TParser, ptr %45, i32 0, i32 7
  store i8 1, ptr %46, align 8
  br label %47

47:                                               ; preds = %44, %38
  br label %49

48:                                               ; preds = %1
  br label %49

49:                                               ; preds = %48, %47, %37, %17
  ret void
}