; Function Attrs: nounwind uwtable
define internal void @SpecialTags(ptr noundef captures(none) %0) #0 {
  %2 = getelementptr inbounds nuw i8, ptr %0, i64 40
  %3 = load ptr, ptr %2, align 8
  %4 = getelementptr inbounds nuw i8, ptr %3, i64 16
  %5 = load i32, ptr %4, align 8
  switch i32 %5, label %26 [
    i32 8, label %6
    i32 7, label %11
    i32 6, label %20
  ]

6:                                                ; preds = %1
  %7 = getelementptr inbounds nuw i8, ptr %0, i64 56
  %8 = load ptr, ptr %7, align 8
  %9 = tail call i32 @pg_strncasecmp(ptr noundef %8, ptr noundef nonnull @.str.100, i64 noundef 8) #16
  %10 = icmp eq i32 %9, 0
  br i1 %10, label %.sink.split, label %26

11:                                               ; preds = %1
  %12 = getelementptr inbounds nuw i8, ptr %0, i64 56
  %13 = load ptr, ptr %12, align 8
  %14 = tail call i32 @pg_strncasecmp(ptr noundef %13, ptr noundef nonnull @.str.101, i64 noundef 7) #16
  %15 = icmp eq i32 %14, 0
  br i1 %15, label %.sink.split, label %16

16:                                               ; preds = %11
  %17 = load ptr, ptr %12, align 8
  %18 = tail call i32 @pg_strncasecmp(ptr noundef %17, ptr noundef nonnull @.str.102, i64 noundef 7) #16
  %19 = icmp eq i32 %18, 0
  br i1 %19, label %.sink.split, label %26

20:                                               ; preds = %1
  %21 = getelementptr inbounds nuw i8, ptr %0, i64 56
  %22 = load ptr, ptr %21, align 8
  %23 = tail call i32 @pg_strncasecmp(ptr noundef %22, ptr noundef nonnull @.str.103, i64 noundef 6) #16
  %24 = icmp eq i32 %23, 0
  br i1 %24, label %.sink.split, label %26

.sink.split:                                      ; preds = %20, %16, %11, %6
  %.sink = phi i8 [ 0, %6 ], [ 0, %11 ], [ 1, %16 ], [ 1, %20 ]
  %25 = getelementptr inbounds nuw i8, ptr %0, i64 48
  store i8 %.sink, ptr %25, align 8
  br label %26

26:                                               ; preds = %.sink.split, %1, %20, %16, %6
  ret void
}